
part3.riscv:     file format elf64-littleriscv


Disassembly of section .text:

0000000080001048 <vprintfmt>:
    80001048:	710d                	addi	sp,sp,-352
    8000104a:	eaa2                	sd	s0,336(sp)
    8000104c:	e6a6                	sd	s1,328(sp)
    8000104e:	e2ca                	sd	s2,320(sp)
    80001050:	fa52                	sd	s4,304(sp)
    80001052:	f25a                	sd	s6,288(sp)
    80001054:	ee5e                	sd	s7,280(sp)
    80001056:	ee86                	sd	ra,344(sp)
    80001058:	fe4e                	sd	s3,312(sp)
    8000105a:	f656                	sd	s5,296(sp)
    8000105c:	ea62                	sd	s8,272(sp)
    8000105e:	e666                	sd	s9,264(sp)
    80001060:	e26a                	sd	s10,256(sp)
    80001062:	892a                	mv	s2,a0
    80001064:	84ae                	mv	s1,a1
    80001066:	8432                	mv	s0,a2
    80001068:	8bb6                	mv	s7,a3
    8000106a:	02500a13          	li	s4,37
    8000106e:	00001b17          	auipc	s6,0x1
    80001072:	936b0b13          	addi	s6,s6,-1738 # 800019a4 <wait3+0x4c>
    80001076:	a029                	j	80001080 <vprintfmt+0x38>
    80001078:	c131                	beqz	a0,800010bc <vprintfmt+0x74>
    8000107a:	85a6                	mv	a1,s1
    8000107c:	0405                	addi	s0,s0,1
    8000107e:	9902                	jalr	s2
    80001080:	00044503          	lbu	a0,0(s0)
    80001084:	ff451ae3          	bne	a0,s4,80001078 <vprintfmt+0x30>
    80001088:	00144683          	lbu	a3,1(s0)
    8000108c:	00140a93          	addi	s5,s0,1
    80001090:	8756                	mv	a4,s5
    80001092:	02000c13          	li	s8,32
    80001096:	59fd                	li	s3,-1
    80001098:	5cfd                	li	s9,-1
    8000109a:	4501                	li	a0,0
    8000109c:	05500613          	li	a2,85
    800010a0:	45a5                	li	a1,9
    800010a2:	fdd6879b          	addiw	a5,a3,-35
    800010a6:	0ff7f793          	andi	a5,a5,255
    800010aa:	00170413          	addi	s0,a4,1
    800010ae:	1cf66563          	bltu	a2,a5,80001278 <vprintfmt+0x230>
    800010b2:	078a                	slli	a5,a5,0x2
    800010b4:	97da                	add	a5,a5,s6
    800010b6:	439c                	lw	a5,0(a5)
    800010b8:	97da                	add	a5,a5,s6
    800010ba:	8782                	jr	a5
    800010bc:	60f6                	ld	ra,344(sp)
    800010be:	6456                	ld	s0,336(sp)
    800010c0:	64b6                	ld	s1,328(sp)
    800010c2:	6916                	ld	s2,320(sp)
    800010c4:	79f2                	ld	s3,312(sp)
    800010c6:	7a52                	ld	s4,304(sp)
    800010c8:	7ab2                	ld	s5,296(sp)
    800010ca:	7b12                	ld	s6,288(sp)
    800010cc:	6bf2                	ld	s7,280(sp)
    800010ce:	6c52                	ld	s8,272(sp)
    800010d0:	6cb2                	ld	s9,264(sp)
    800010d2:	6d12                	ld	s10,256(sp)
    800010d4:	6135                	addi	sp,sp,352
    800010d6:	8082                	ret
    800010d8:	8c36                	mv	s8,a3
    800010da:	00174683          	lbu	a3,1(a4)
    800010de:	8722                	mv	a4,s0
    800010e0:	b7c9                	j	800010a2 <vprintfmt+0x5a>
    800010e2:	4721                	li	a4,8
    800010e4:	4785                	li	a5,1
    800010e6:	008b8693          	addi	a3,s7,8
    800010ea:	14a7c963          	blt	a5,a0,8000123c <vprintfmt+0x1f4>
    800010ee:	14051763          	bnez	a0,8000123c <vprintfmt+0x1f4>
    800010f2:	000be783          	lwu	a5,0(s7)
    800010f6:	8bb6                	mv	s7,a3
    800010f8:	02e7f9b3          	remu	s3,a5,a4
    800010fc:	2c01                	sext.w	s8,s8
    800010fe:	0054                	addi	a3,sp,4
    80001100:	4a85                	li	s5,1
    80001102:	c04e                	sw	s3,0(sp)
    80001104:	00e7f463          	bgeu	a5,a4,8000110c <vprintfmt+0xc4>
    80001108:	aa7d                	j	800012c6 <vprintfmt+0x27e>
    8000110a:	8aea                	mv	s5,s10
    8000110c:	02e7d7b3          	divu	a5,a5,a4
    80001110:	0691                	addi	a3,a3,4
    80001112:	001a8d1b          	addiw	s10,s5,1
    80001116:	02e7f9b3          	remu	s3,a5,a4
    8000111a:	ff36ae23          	sw	s3,-4(a3)
    8000111e:	fee7f6e3          	bgeu	a5,a4,8000110a <vprintfmt+0xc2>
    80001122:	019d5963          	bge	s10,s9,80001134 <vprintfmt+0xec>
    80001126:	2c81                	sext.w	s9,s9
    80001128:	3cfd                	addiw	s9,s9,-1
    8000112a:	85a6                	mv	a1,s1
    8000112c:	8562                	mv	a0,s8
    8000112e:	9902                	jalr	s2
    80001130:	ff9d4ce3          	blt	s10,s9,80001128 <vprintfmt+0xe0>
    80001134:	002a9c13          	slli	s8,s5,0x2
    80001138:	01810ab3          	add	s5,sp,s8
    8000113c:	418a8c33          	sub	s8,s5,s8
    80001140:	4ca5                	li	s9,9
    80001142:	a021                	j	8000114a <vprintfmt+0x102>
    80001144:	ffcaa983          	lw	s3,-4(s5)
    80001148:	1af1                	addi	s5,s5,-4
    8000114a:	05700513          	li	a0,87
    8000114e:	013ce463          	bltu	s9,s3,80001156 <vprintfmt+0x10e>
    80001152:	03000513          	li	a0,48
    80001156:	85a6                	mv	a1,s1
    80001158:	0135053b          	addw	a0,a0,s3
    8000115c:	9902                	jalr	s2
    8000115e:	ff5c13e3          	bne	s8,s5,80001144 <vprintfmt+0xfc>
    80001162:	bf39                	j	80001080 <vprintfmt+0x38>
    80001164:	fffcc793          	not	a5,s9
    80001168:	97fd                	srai	a5,a5,0x3f
    8000116a:	00fcfcb3          	and	s9,s9,a5
    8000116e:	00174683          	lbu	a3,1(a4)
    80001172:	2c81                	sext.w	s9,s9
    80001174:	8722                	mv	a4,s0
    80001176:	b735                	j	800010a2 <vprintfmt+0x5a>
    80001178:	4741                	li	a4,16
    8000117a:	b7ad                	j	800010e4 <vprintfmt+0x9c>
    8000117c:	fd06899b          	addiw	s3,a3,-48
    80001180:	00174683          	lbu	a3,1(a4)
    80001184:	8722                	mv	a4,s0
    80001186:	fd06879b          	addiw	a5,a3,-48
    8000118a:	0006881b          	sext.w	a6,a3
    8000118e:	02f5e563          	bltu	a1,a5,800011b8 <vprintfmt+0x170>
    80001192:	0705                	addi	a4,a4,1
    80001194:	0029979b          	slliw	a5,s3,0x2
    80001198:	00074683          	lbu	a3,0(a4)
    8000119c:	013789bb          	addw	s3,a5,s3
    800011a0:	0019999b          	slliw	s3,s3,0x1
    800011a4:	010989bb          	addw	s3,s3,a6
    800011a8:	fd06879b          	addiw	a5,a3,-48
    800011ac:	fd09899b          	addiw	s3,s3,-48
    800011b0:	0006881b          	sext.w	a6,a3
    800011b4:	fcf5ffe3          	bgeu	a1,a5,80001192 <vprintfmt+0x14a>
    800011b8:	ee0cd5e3          	bgez	s9,800010a2 <vprintfmt+0x5a>
    800011bc:	8cce                	mv	s9,s3
    800011be:	59fd                	li	s3,-1
    800011c0:	b5cd                	j	800010a2 <vprintfmt+0x5a>
    800011c2:	000ba503          	lw	a0,0(s7)
    800011c6:	85a6                	mv	a1,s1
    800011c8:	0ba1                	addi	s7,s7,8
    800011ca:	9902                	jalr	s2
    800011cc:	bd55                	j	80001080 <vprintfmt+0x38>
    800011ce:	000bba83          	ld	s5,0(s7)
    800011d2:	0ba1                	addi	s7,s7,8
    800011d4:	100a8b63          	beqz	s5,800012ea <vprintfmt+0x2a2>
    800011d8:	0f905163          	blez	s9,800012ba <vprintfmt+0x272>
    800011dc:	02d00793          	li	a5,45
    800011e0:	0afc1663          	bne	s8,a5,8000128c <vprintfmt+0x244>
    800011e4:	000ac503          	lbu	a0,0(s5)
    800011e8:	c105                	beqz	a0,80001208 <vprintfmt+0x1c0>
    800011ea:	5c7d                	li	s8,-1
    800011ec:	0009c563          	bltz	s3,800011f6 <vprintfmt+0x1ae>
    800011f0:	39fd                	addiw	s3,s3,-1
    800011f2:	01898963          	beq	s3,s8,80001204 <vprintfmt+0x1bc>
    800011f6:	85a6                	mv	a1,s1
    800011f8:	0a85                	addi	s5,s5,1
    800011fa:	9902                	jalr	s2
    800011fc:	000ac503          	lbu	a0,0(s5)
    80001200:	3cfd                	addiw	s9,s9,-1
    80001202:	f56d                	bnez	a0,800011ec <vprintfmt+0x1a4>
    80001204:	e7905ee3          	blez	s9,80001080 <vprintfmt+0x38>
    80001208:	3cfd                	addiw	s9,s9,-1
    8000120a:	85a6                	mv	a1,s1
    8000120c:	02000513          	li	a0,32
    80001210:	9902                	jalr	s2
    80001212:	fe0c9be3          	bnez	s9,80001208 <vprintfmt+0x1c0>
    80001216:	b5ad                	j	80001080 <vprintfmt+0x38>
    80001218:	4729                	li	a4,10
    8000121a:	b5e9                	j	800010e4 <vprintfmt+0x9c>
    8000121c:	00174683          	lbu	a3,1(a4)
    80001220:	2505                	addiw	a0,a0,1
    80001222:	8722                	mv	a4,s0
    80001224:	bdbd                	j	800010a2 <vprintfmt+0x5a>
    80001226:	03000513          	li	a0,48
    8000122a:	85a6                	mv	a1,s1
    8000122c:	9902                	jalr	s2
    8000122e:	85a6                	mv	a1,s1
    80001230:	07800513          	li	a0,120
    80001234:	9902                	jalr	s2
    80001236:	008b8693          	addi	a3,s7,8
    8000123a:	4741                	li	a4,16
    8000123c:	000bb783          	ld	a5,0(s7)
    80001240:	8bb6                	mv	s7,a3
    80001242:	bd5d                	j	800010f8 <vprintfmt+0xb0>
    80001244:	4785                	li	a5,1
    80001246:	008b8a93          	addi	s5,s7,8
    8000124a:	00a7c363          	blt	a5,a0,80001250 <vprintfmt+0x208>
    8000124e:	c151                	beqz	a0,800012d2 <vprintfmt+0x28a>
    80001250:	000bb983          	ld	s3,0(s7)
    80001254:	0809c263          	bltz	s3,800012d8 <vprintfmt+0x290>
    80001258:	87ce                	mv	a5,s3
    8000125a:	8bd6                	mv	s7,s5
    8000125c:	4729                	li	a4,10
    8000125e:	bd69                	j	800010f8 <vprintfmt+0xb0>
    80001260:	85a6                	mv	a1,s1
    80001262:	02500513          	li	a0,37
    80001266:	9902                	jalr	s2
    80001268:	bd21                	j	80001080 <vprintfmt+0x38>
    8000126a:	000ba983          	lw	s3,0(s7)
    8000126e:	00174683          	lbu	a3,1(a4)
    80001272:	0ba1                	addi	s7,s7,8
    80001274:	8722                	mv	a4,s0
    80001276:	b789                	j	800011b8 <vprintfmt+0x170>
    80001278:	85a6                	mv	a1,s1
    8000127a:	02500513          	li	a0,37
    8000127e:	9902                	jalr	s2
    80001280:	8456                	mv	s0,s5
    80001282:	bbfd                	j	80001080 <vprintfmt+0x38>
    80001284:	00001a97          	auipc	s5,0x1
    80001288:	87ca8a93          	addi	s5,s5,-1924 # 80001b00 <wait3+0x1a8>
    8000128c:	06098d63          	beqz	s3,80001306 <vprintfmt+0x2be>
    80001290:	000ac783          	lbu	a5,0(s5)
    80001294:	cbad                	beqz	a5,80001306 <vprintfmt+0x2be>
    80001296:	001a8793          	addi	a5,s5,1
    8000129a:	013a8633          	add	a2,s5,s3
    8000129e:	a029                	j	800012a8 <vprintfmt+0x260>
    800012a0:	0785                	addi	a5,a5,1
    800012a2:	fff7c703          	lbu	a4,-1(a5)
    800012a6:	cb25                	beqz	a4,80001316 <vprintfmt+0x2ce>
    800012a8:	86be                	mv	a3,a5
    800012aa:	fef61be3          	bne	a2,a5,800012a0 <vprintfmt+0x258>
    800012ae:	415606bb          	subw	a3,a2,s5
    800012b2:	40dc8cbb          	subw	s9,s9,a3
    800012b6:	05904863          	bgtz	s9,80001306 <vprintfmt+0x2be>
    800012ba:	000ac503          	lbu	a0,0(s5)
    800012be:	dc0501e3          	beqz	a0,80001080 <vprintfmt+0x38>
    800012c2:	5c7d                	li	s8,-1
    800012c4:	b725                	j	800011ec <vprintfmt+0x1a4>
    800012c6:	4785                	li	a5,1
    800012c8:	4a81                	li	s5,0
    800012ca:	4d05                	li	s10,1
    800012cc:	e597cde3          	blt	a5,s9,80001126 <vprintfmt+0xde>
    800012d0:	b595                	j	80001134 <vprintfmt+0xec>
    800012d2:	000ba983          	lw	s3,0(s7)
    800012d6:	bfbd                	j	80001254 <vprintfmt+0x20c>
    800012d8:	85a6                	mv	a1,s1
    800012da:	02d00513          	li	a0,45
    800012de:	9902                	jalr	s2
    800012e0:	8bd6                	mv	s7,s5
    800012e2:	413007b3          	neg	a5,s3
    800012e6:	4729                	li	a4,10
    800012e8:	bd01                	j	800010f8 <vprintfmt+0xb0>
    800012ea:	01905663          	blez	s9,800012f6 <vprintfmt+0x2ae>
    800012ee:	02d00793          	li	a5,45
    800012f2:	f8fc19e3          	bne	s8,a5,80001284 <vprintfmt+0x23c>
    800012f6:	00001a97          	auipc	s5,0x1
    800012fa:	80aa8a93          	addi	s5,s5,-2038 # 80001b00 <wait3+0x1a8>
    800012fe:	02800513          	li	a0,40
    80001302:	5c7d                	li	s8,-1
    80001304:	b5e5                	j	800011ec <vprintfmt+0x1a4>
    80001306:	2c01                	sext.w	s8,s8
    80001308:	3cfd                	addiw	s9,s9,-1
    8000130a:	85a6                	mv	a1,s1
    8000130c:	8562                	mv	a0,s8
    8000130e:	9902                	jalr	s2
    80001310:	fe0c9ce3          	bnez	s9,80001308 <vprintfmt+0x2c0>
    80001314:	b75d                	j	800012ba <vprintfmt+0x272>
    80001316:	415686bb          	subw	a3,a3,s5
    8000131a:	bf61                	j	800012b2 <vprintfmt+0x26a>

000000008000131c <sprintf_putch.3144>:
    8000131c:	619c                	ld	a5,0(a1)
    8000131e:	00a78023          	sb	a0,0(a5)
    80001322:	619c                	ld	a5,0(a1)
    80001324:	0785                	addi	a5,a5,1
    80001326:	e19c                	sd	a5,0(a1)
    80001328:	8082                	ret

000000008000132a <putchar>:
    8000132a:	04022803          	lw	a6,64(tp) # 40 <buflen.3030>
    8000132e:	00020793          	mv	a5,tp
    80001332:	97c2                	add	a5,a5,a6
    80001334:	7159                	addi	sp,sp,-112
    80001336:	0018071b          	addiw	a4,a6,1
    8000133a:	04e22023          	sw	a4,64(tp) # 40 <buflen.3030>
    8000133e:	00a78023          	sb	a0,0(a5)
    80001342:	45a9                	li	a1,10
    80001344:	03f10793          	addi	a5,sp,63
    80001348:	fc07f793          	andi	a5,a5,-64
    8000134c:	00b50963          	beq	a0,a1,8000135e <putchar+0x34>
    80001350:	04000593          	li	a1,64
    80001354:	00b70563          	beq	a4,a1,8000135e <putchar+0x34>
    80001358:	4501                	li	a0,0
    8000135a:	6165                	addi	sp,sp,112
    8000135c:	8082                	ret
    8000135e:	04000593          	li	a1,64
    80001362:	e38c                	sd	a1,0(a5)
    80001364:	4585                	li	a1,1
    80001366:	e78c                	sd	a1,8(a5)
    80001368:	00020693          	mv	a3,tp
    8000136c:	eb94                	sd	a3,16(a5)
    8000136e:	ef98                	sd	a4,24(a5)
    80001370:	0ff0000f          	fence
    80001374:	00000697          	auipc	a3,0x0
    80001378:	ccc68693          	addi	a3,a3,-820 # 80001040 <fromhost>
    8000137c:	00000717          	auipc	a4,0x0
    80001380:	c8f73223          	sd	a5,-892(a4) # 80001000 <tohost>
    80001384:	6298                	ld	a4,0(a3)
    80001386:	df7d                	beqz	a4,80001384 <putchar+0x5a>
    80001388:	00000717          	auipc	a4,0x0
    8000138c:	ca073c23          	sd	zero,-840(a4) # 80001040 <fromhost>
    80001390:	0ff0000f          	fence
    80001394:	04022023          	sw	zero,64(tp) # 40 <buflen.3030>
    80001398:	639c                	ld	a5,0(a5)
    8000139a:	4501                	li	a0,0
    8000139c:	6165                	addi	sp,sp,112
    8000139e:	8082                	ret

00000000800013a0 <setStats>:
    800013a0:	b00027f3          	csrr	a5,mcycle
    800013a4:	00001717          	auipc	a4,0x1
    800013a8:	89470713          	addi	a4,a4,-1900 # 80001c38 <counters>
    800013ac:	e919                	bnez	a0,800013c2 <setStats+0x22>
    800013ae:	6314                	ld	a3,0(a4)
    800013b0:	00000617          	auipc	a2,0x0
    800013b4:	75860613          	addi	a2,a2,1880 # 80001b08 <wait3+0x1b0>
    800013b8:	00001597          	auipc	a1,0x1
    800013bc:	88c5b823          	sd	a2,-1904(a1) # 80001c48 <counter_names>
    800013c0:	8f95                	sub	a5,a5,a3
    800013c2:	00001697          	auipc	a3,0x1
    800013c6:	86f6bb23          	sd	a5,-1930(a3) # 80001c38 <counters>
    800013ca:	b02027f3          	csrr	a5,minstret
    800013ce:	e919                	bnez	a0,800013e4 <setStats+0x44>
    800013d0:	6718                	ld	a4,8(a4)
    800013d2:	00000697          	auipc	a3,0x0
    800013d6:	73e68693          	addi	a3,a3,1854 # 80001b10 <wait3+0x1b8>
    800013da:	00001617          	auipc	a2,0x1
    800013de:	86d63b23          	sd	a3,-1930(a2) # 80001c50 <counter_names+0x8>
    800013e2:	8f99                	sub	a5,a5,a4
    800013e4:	00001717          	auipc	a4,0x1
    800013e8:	84f73e23          	sd	a5,-1956(a4) # 80001c40 <counters+0x8>
    800013ec:	8082                	ret

00000000800013ee <tohost_exit>:
    800013ee:	00151793          	slli	a5,a0,0x1
    800013f2:	0017e793          	ori	a5,a5,1
    800013f6:	00000717          	auipc	a4,0x0
    800013fa:	c0f73523          	sd	a5,-1014(a4) # 80001000 <tohost>
    800013fe:	a001                	j	800013fe <tohost_exit+0x10>

0000000080001400 <handle_trap>:
    80001400:	6785                	lui	a5,0x1
    80001402:	a7378793          	addi	a5,a5,-1421 # a73 <_tbss_end+0xa2f>
    80001406:	00000717          	auipc	a4,0x0
    8000140a:	bef73d23          	sd	a5,-1030(a4) # 80001000 <tohost>
    8000140e:	a001                	j	8000140e <handle_trap+0xe>

0000000080001410 <exit>:
    80001410:	1141                	addi	sp,sp,-16
    80001412:	e406                	sd	ra,8(sp)
    80001414:	fdbff0ef          	jal	ra,800013ee <tohost_exit>

0000000080001418 <abort>:
    80001418:	10d00793          	li	a5,269
    8000141c:	00000717          	auipc	a4,0x0
    80001420:	bef73223          	sd	a5,-1052(a4) # 80001000 <tohost>
    80001424:	a001                	j	80001424 <abort+0xc>

0000000080001426 <printstr>:
    80001426:	00054783          	lbu	a5,0(a0)
    8000142a:	7159                	addi	sp,sp,-112
    8000142c:	03f10693          	addi	a3,sp,63
    80001430:	fc06f693          	andi	a3,a3,-64
    80001434:	c3b9                	beqz	a5,8000147a <printstr+0x54>
    80001436:	87aa                	mv	a5,a0
    80001438:	0785                	addi	a5,a5,1
    8000143a:	0007c703          	lbu	a4,0(a5)
    8000143e:	ff6d                	bnez	a4,80001438 <printstr+0x12>
    80001440:	8f89                	sub	a5,a5,a0
    80001442:	04000713          	li	a4,64
    80001446:	e298                	sd	a4,0(a3)
    80001448:	4705                	li	a4,1
    8000144a:	e698                	sd	a4,8(a3)
    8000144c:	ea88                	sd	a0,16(a3)
    8000144e:	ee9c                	sd	a5,24(a3)
    80001450:	0ff0000f          	fence
    80001454:	00000717          	auipc	a4,0x0
    80001458:	bec70713          	addi	a4,a4,-1044 # 80001040 <fromhost>
    8000145c:	00000797          	auipc	a5,0x0
    80001460:	bad7b223          	sd	a3,-1116(a5) # 80001000 <tohost>
    80001464:	631c                	ld	a5,0(a4)
    80001466:	dffd                	beqz	a5,80001464 <printstr+0x3e>
    80001468:	00000797          	auipc	a5,0x0
    8000146c:	bc07bc23          	sd	zero,-1064(a5) # 80001040 <fromhost>
    80001470:	0ff0000f          	fence
    80001474:	629c                	ld	a5,0(a3)
    80001476:	6165                	addi	sp,sp,112
    80001478:	8082                	ret
    8000147a:	4781                	li	a5,0
    8000147c:	b7d9                	j	80001442 <printstr+0x1c>

000000008000147e <thread_entry>:
    8000147e:	c111                	beqz	a0,80001482 <thread_entry+0x4>
    80001480:	a001                	j	80001480 <thread_entry+0x2>
    80001482:	8082                	ret

0000000080001484 <printhex>:
    80001484:	7179                	addi	sp,sp,-48
    80001486:	862a                	mv	a2,a0
    80001488:	f406                	sd	ra,40(sp)
    8000148a:	0028                	addi	a0,sp,8
    8000148c:	01710693          	addi	a3,sp,23
    80001490:	4825                	li	a6,9
    80001492:	a011                	j	80001496 <printhex+0x12>
    80001494:	86be                	mv	a3,a5
    80001496:	00f67793          	andi	a5,a2,15
    8000149a:	03000593          	li	a1,48
    8000149e:	0ff7f713          	andi	a4,a5,255
    800014a2:	00f87463          	bgeu	a6,a5,800014aa <printhex+0x26>
    800014a6:	05700593          	li	a1,87
    800014aa:	00b707bb          	addw	a5,a4,a1
    800014ae:	00f68023          	sb	a5,0(a3)
    800014b2:	8211                	srli	a2,a2,0x4
    800014b4:	fff68793          	addi	a5,a3,-1
    800014b8:	fcd51ee3          	bne	a0,a3,80001494 <printhex+0x10>
    800014bc:	00010c23          	sb	zero,24(sp)
    800014c0:	f67ff0ef          	jal	ra,80001426 <printstr>
    800014c4:	70a2                	ld	ra,40(sp)
    800014c6:	6145                	addi	sp,sp,48
    800014c8:	8082                	ret

00000000800014ca <printf>:
    800014ca:	711d                	addi	sp,sp,-96
    800014cc:	02810313          	addi	t1,sp,40
    800014d0:	f42e                	sd	a1,40(sp)
    800014d2:	f832                	sd	a2,48(sp)
    800014d4:	fc36                	sd	a3,56(sp)
    800014d6:	862a                	mv	a2,a0
    800014d8:	869a                	mv	a3,t1
    800014da:	00000517          	auipc	a0,0x0
    800014de:	e5050513          	addi	a0,a0,-432 # 8000132a <putchar>
    800014e2:	4581                	li	a1,0
    800014e4:	ec06                	sd	ra,24(sp)
    800014e6:	e0ba                	sd	a4,64(sp)
    800014e8:	e4be                	sd	a5,72(sp)
    800014ea:	e8c2                	sd	a6,80(sp)
    800014ec:	ecc6                	sd	a7,88(sp)
    800014ee:	e41a                	sd	t1,8(sp)
    800014f0:	b59ff0ef          	jal	ra,80001048 <vprintfmt>
    800014f4:	60e2                	ld	ra,24(sp)
    800014f6:	4501                	li	a0,0
    800014f8:	6125                	addi	sp,sp,96
    800014fa:	8082                	ret

00000000800014fc <sprintf>:
    800014fc:	711d                	addi	sp,sp,-96
    800014fe:	03010313          	addi	t1,sp,48
    80001502:	f022                	sd	s0,32(sp)
    80001504:	e42a                	sd	a0,8(sp)
    80001506:	f832                	sd	a2,48(sp)
    80001508:	fc36                	sd	a3,56(sp)
    8000150a:	842a                	mv	s0,a0
    8000150c:	862e                	mv	a2,a1
    8000150e:	00000517          	auipc	a0,0x0
    80001512:	e0e50513          	addi	a0,a0,-498 # 8000131c <sprintf_putch.3144>
    80001516:	002c                	addi	a1,sp,8
    80001518:	869a                	mv	a3,t1
    8000151a:	f406                	sd	ra,40(sp)
    8000151c:	e4be                	sd	a5,72(sp)
    8000151e:	e0ba                	sd	a4,64(sp)
    80001520:	e8c2                	sd	a6,80(sp)
    80001522:	ecc6                	sd	a7,88(sp)
    80001524:	ec1a                	sd	t1,24(sp)
    80001526:	b23ff0ef          	jal	ra,80001048 <vprintfmt>
    8000152a:	67a2                	ld	a5,8(sp)
    8000152c:	00078023          	sb	zero,0(a5)
    80001530:	6522                	ld	a0,8(sp)
    80001532:	70a2                	ld	ra,40(sp)
    80001534:	9d01                	subw	a0,a0,s0
    80001536:	7402                	ld	s0,32(sp)
    80001538:	6125                	addi	sp,sp,96
    8000153a:	8082                	ret

000000008000153c <memcpy>:
    8000153c:	00c5e7b3          	or	a5,a1,a2
    80001540:	8fc9                	or	a5,a5,a0
    80001542:	8b9d                	andi	a5,a5,7
    80001544:	00c506b3          	add	a3,a0,a2
    80001548:	cf91                	beqz	a5,80001564 <memcpy+0x28>
    8000154a:	962e                	add	a2,a2,a1
    8000154c:	87aa                	mv	a5,a0
    8000154e:	02d57763          	bgeu	a0,a3,8000157c <memcpy+0x40>
    80001552:	0585                	addi	a1,a1,1
    80001554:	fff5c703          	lbu	a4,-1(a1)
    80001558:	0785                	addi	a5,a5,1
    8000155a:	fee78fa3          	sb	a4,-1(a5)
    8000155e:	feb61ae3          	bne	a2,a1,80001552 <memcpy+0x16>
    80001562:	8082                	ret
    80001564:	fed57fe3          	bgeu	a0,a3,80001562 <memcpy+0x26>
    80001568:	87aa                	mv	a5,a0
    8000156a:	05a1                	addi	a1,a1,8
    8000156c:	ff85b703          	ld	a4,-8(a1)
    80001570:	07a1                	addi	a5,a5,8
    80001572:	fee7bc23          	sd	a4,-8(a5)
    80001576:	fed7eae3          	bltu	a5,a3,8000156a <memcpy+0x2e>
    8000157a:	8082                	ret
    8000157c:	8082                	ret

000000008000157e <memset>:
    8000157e:	00c567b3          	or	a5,a0,a2
    80001582:	8b9d                	andi	a5,a5,7
    80001584:	962a                	add	a2,a2,a0
    80001586:	0ff5f593          	andi	a1,a1,255
    8000158a:	cb91                	beqz	a5,8000159e <memset+0x20>
    8000158c:	87aa                	mv	a5,a0
    8000158e:	02c57a63          	bgeu	a0,a2,800015c2 <memset+0x44>
    80001592:	0785                	addi	a5,a5,1
    80001594:	feb78fa3          	sb	a1,-1(a5)
    80001598:	fef61de3          	bne	a2,a5,80001592 <memset+0x14>
    8000159c:	8082                	ret
    8000159e:	00859713          	slli	a4,a1,0x8
    800015a2:	8f4d                	or	a4,a4,a1
    800015a4:	01071593          	slli	a1,a4,0x10
    800015a8:	8f4d                	or	a4,a4,a1
    800015aa:	02071793          	slli	a5,a4,0x20
    800015ae:	8f5d                	or	a4,a4,a5
    800015b0:	fec576e3          	bgeu	a0,a2,8000159c <memset+0x1e>
    800015b4:	87aa                	mv	a5,a0
    800015b6:	07a1                	addi	a5,a5,8
    800015b8:	fee7bc23          	sd	a4,-8(a5)
    800015bc:	fec7ede3          	bltu	a5,a2,800015b6 <memset+0x38>
    800015c0:	8082                	ret
    800015c2:	8082                	ret

00000000800015c4 <_init>:
    800015c4:	7171                	addi	sp,sp,-176
    800015c6:	f122                	sd	s0,160(sp)
    800015c8:	ed26                	sd	s1,152(sp)
    800015ca:	00020493          	mv	s1,tp
    800015ce:	00020413          	mv	s0,tp
    800015d2:	40848433          	sub	s0,s1,s0
    800015d6:	8622                	mv	a2,s0
    800015d8:	e54e                	sd	s3,136(sp)
    800015da:	e152                	sd	s4,128(sp)
    800015dc:	89aa                	mv	s3,a0
    800015de:	8a2e                	mv	s4,a1
    800015e0:	8512                	mv	a0,tp
    800015e2:	84818593          	addi	a1,gp,-1976 # 80001c80 <_end>
    800015e6:	f506                	sd	ra,168(sp)
    800015e8:	e94a                	sd	s2,144(sp)
    800015ea:	fcd6                	sd	s5,120(sp)
    800015ec:	8a92                	mv	s5,tp
    800015ee:	f4fff0ef          	jal	ra,8000153c <memcpy>
    800015f2:	04420613          	addi	a2,tp,68 # 44 <_tbss_end>
    800015f6:	8e05                	sub	a2,a2,s1
    800015f8:	4581                	li	a1,0
    800015fa:	008a8533          	add	a0,s5,s0
    800015fe:	f81ff0ef          	jal	ra,8000157e <memset>
    80001602:	854e                	mv	a0,s3
    80001604:	85d2                	mv	a1,s4
    80001606:	e79ff0ef          	jal	ra,8000147e <thread_entry>
    8000160a:	4581                	li	a1,0
    8000160c:	4501                	li	a0,0
    8000160e:	138000ef          	jal	ra,80001746 <main>
    80001612:	00000417          	auipc	s0,0x0
    80001616:	62640413          	addi	s0,s0,1574 # 80001c38 <counters>
    8000161a:	6014                	ld	a3,0(s0)
    8000161c:	03f10913          	addi	s2,sp,63
    80001620:	fc097913          	andi	s2,s2,-64
    80001624:	89aa                	mv	s3,a0
    80001626:	e695                	bnez	a3,80001652 <_init+0x8e>
    80001628:	6414                	ld	a3,8(s0)
    8000162a:	e681                	bnez	a3,80001632 <_init+0x6e>
    8000162c:	854e                	mv	a0,s3
    8000162e:	dc1ff0ef          	jal	ra,800013ee <tohost_exit>
    80001632:	84ca                	mv	s1,s2
    80001634:	6c10                	ld	a2,24(s0)
    80001636:	8526                	mv	a0,s1
    80001638:	00000597          	auipc	a1,0x0
    8000163c:	50058593          	addi	a1,a1,1280 # 80001b38 <wait3+0x1e0>
    80001640:	ebdff0ef          	jal	ra,800014fc <sprintf>
    80001644:	94aa                	add	s1,s1,a0
    80001646:	fe9903e3          	beq	s2,s1,8000162c <_init+0x68>
    8000164a:	854a                	mv	a0,s2
    8000164c:	ddbff0ef          	jal	ra,80001426 <printstr>
    80001650:	bff1                	j	8000162c <_init+0x68>
    80001652:	6810                	ld	a2,16(s0)
    80001654:	00000597          	auipc	a1,0x0
    80001658:	4e458593          	addi	a1,a1,1252 # 80001b38 <wait3+0x1e0>
    8000165c:	854a                	mv	a0,s2
    8000165e:	e9fff0ef          	jal	ra,800014fc <sprintf>
    80001662:	6414                	ld	a3,8(s0)
    80001664:	00a904b3          	add	s1,s2,a0
    80001668:	def9                	beqz	a3,80001646 <_init+0x82>
    8000166a:	b7e9                	j	80001634 <_init+0x70>

000000008000166c <strlen>:
    8000166c:	00054783          	lbu	a5,0(a0)
    80001670:	cb89                	beqz	a5,80001682 <strlen+0x16>
    80001672:	87aa                	mv	a5,a0
    80001674:	0785                	addi	a5,a5,1
    80001676:	0007c703          	lbu	a4,0(a5)
    8000167a:	ff6d                	bnez	a4,80001674 <strlen+0x8>
    8000167c:	40a78533          	sub	a0,a5,a0
    80001680:	8082                	ret
    80001682:	4501                	li	a0,0
    80001684:	8082                	ret

0000000080001686 <strnlen>:
    80001686:	cd91                	beqz	a1,800016a2 <strnlen+0x1c>
    80001688:	00054783          	lbu	a5,0(a0)
    8000168c:	c38d                	beqz	a5,800016ae <strnlen+0x28>
    8000168e:	00b506b3          	add	a3,a0,a1
    80001692:	87aa                	mv	a5,a0
    80001694:	a021                	j	8000169c <strnlen+0x16>
    80001696:	0007c703          	lbu	a4,0(a5)
    8000169a:	c711                	beqz	a4,800016a6 <strnlen+0x20>
    8000169c:	0785                	addi	a5,a5,1
    8000169e:	fed79ce3          	bne	a5,a3,80001696 <strnlen+0x10>
    800016a2:	852e                	mv	a0,a1
    800016a4:	8082                	ret
    800016a6:	40a785b3          	sub	a1,a5,a0
    800016aa:	852e                	mv	a0,a1
    800016ac:	8082                	ret
    800016ae:	4581                	li	a1,0
    800016b0:	bfcd                	j	800016a2 <strnlen+0x1c>

00000000800016b2 <strcmp>:
    800016b2:	0505                	addi	a0,a0,1
    800016b4:	fff54783          	lbu	a5,-1(a0)
    800016b8:	0585                	addi	a1,a1,1
    800016ba:	fff5c703          	lbu	a4,-1(a1)
    800016be:	c799                	beqz	a5,800016cc <strcmp+0x1a>
    800016c0:	fee789e3          	beq	a5,a4,800016b2 <strcmp>
    800016c4:	0007851b          	sext.w	a0,a5
    800016c8:	9d19                	subw	a0,a0,a4
    800016ca:	8082                	ret
    800016cc:	4501                	li	a0,0
    800016ce:	bfed                	j	800016c8 <strcmp+0x16>

00000000800016d0 <strcpy>:
    800016d0:	87aa                	mv	a5,a0
    800016d2:	0585                	addi	a1,a1,1
    800016d4:	fff5c703          	lbu	a4,-1(a1)
    800016d8:	0785                	addi	a5,a5,1
    800016da:	fee78fa3          	sb	a4,-1(a5)
    800016de:	fb75                	bnez	a4,800016d2 <strcpy+0x2>
    800016e0:	8082                	ret

00000000800016e2 <atol>:
    800016e2:	00054783          	lbu	a5,0(a0)
    800016e6:	02000713          	li	a4,32
    800016ea:	00e79763          	bne	a5,a4,800016f8 <atol+0x16>
    800016ee:	0505                	addi	a0,a0,1
    800016f0:	00054783          	lbu	a5,0(a0)
    800016f4:	fee78de3          	beq	a5,a4,800016ee <atol+0xc>
    800016f8:	fd57871b          	addiw	a4,a5,-43
    800016fc:	0fd77713          	andi	a4,a4,253
    80001700:	c715                	beqz	a4,8000172c <atol+0x4a>
    80001702:	00054683          	lbu	a3,0(a0)
    80001706:	87aa                	mv	a5,a0
    80001708:	4601                	li	a2,0
    8000170a:	ce85                	beqz	a3,80001742 <atol+0x60>
    8000170c:	4501                	li	a0,0
    8000170e:	0785                	addi	a5,a5,1
    80001710:	fd06859b          	addiw	a1,a3,-48
    80001714:	00251713          	slli	a4,a0,0x2
    80001718:	0007c683          	lbu	a3,0(a5)
    8000171c:	953a                	add	a0,a0,a4
    8000171e:	0506                	slli	a0,a0,0x1
    80001720:	952e                	add	a0,a0,a1
    80001722:	f6f5                	bnez	a3,8000170e <atol+0x2c>
    80001724:	c219                	beqz	a2,8000172a <atol+0x48>
    80001726:	40a00533          	neg	a0,a0
    8000172a:	8082                	ret
    8000172c:	00154683          	lbu	a3,1(a0)
    80001730:	fd378793          	addi	a5,a5,-45
    80001734:	0017b613          	seqz	a2,a5
    80001738:	00150793          	addi	a5,a0,1
    8000173c:	fae1                	bnez	a3,8000170c <atol+0x2a>
    8000173e:	4501                	li	a0,0
    80001740:	b7d5                	j	80001724 <atol+0x42>
    80001742:	4501                	li	a0,0
    80001744:	8082                	ret

0000000080001746 <main>:
    80001746:	1161                	addi	sp,sp,-8
    80001748:	e006                	sd	ra,0(sp)
    8000174a:	00000517          	auipc	a0,0x0
    8000174e:	3fe50513          	addi	a0,a0,1022 # 80001b48 <array>
    80001752:	00000617          	auipc	a2,0x0
    80001756:	49663603          	ld	a2,1174(a2) # 80001be8 <size>
    8000175a:	4681                	li	a3,0
    8000175c:	167d                	addi	a2,a2,-1
    8000175e:	010000ef          	jal	ra,8000176e <quickSort>
    80001762:	0d2000ef          	jal	ra,80001834 <print>
    80001766:	4501                	li	a0,0
    80001768:	6082                	ld	ra,0(sp)
    8000176a:	0121                	addi	sp,sp,8
    8000176c:	8082                	ret

000000008000176e <quickSort>:
    8000176e:	1101                	addi	sp,sp,-32
    80001770:	e006                	sd	ra,0(sp)
    80001772:	e44a                	sd	s2,8(sp)
    80001774:	e86a                	sd	s10,16(sp)
    80001776:	ec6e                	sd	s11,24(sp)
    80001778:	02c6db63          	bge	a3,a2,800017ae <exit>
    8000177c:	00060d33          	add	s10,a2,zero
    80001780:	00068db3          	add	s11,a3,zero
    80001784:	02c000ef          	jal	ra,800017b0 <partition>
    80001788:	00058933          	add	s2,a1,zero
    8000178c:	fff90613          	addi	a2,s2,-1
    80001790:	000d86b3          	add	a3,s11,zero
    80001794:	fdbff0ef          	jal	ra,8000176e <quickSort>
    80001798:	000d0633          	add	a2,s10,zero
    8000179c:	00190693          	addi	a3,s2,1
    800017a0:	fcfff0ef          	jal	ra,8000176e <quickSort>
    800017a4:	6082                	ld	ra,0(sp)
    800017a6:	6922                	ld	s2,8(sp)
    800017a8:	6d42                	ld	s10,16(sp)
    800017aa:	6de2                	ld	s11,24(sp)
    800017ac:	6105                	addi	sp,sp,32

00000000800017ae <exit>:
    800017ae:	8082                	ret

00000000800017b0 <partition>:
    800017b0:	fc810113          	addi	sp,sp,-56
    800017b4:	f85e                	sd	s7,48(sp)
    800017b6:	f45a                	sd	s6,40(sp)
    800017b8:	f056                	sd	s5,32(sp)
    800017ba:	ec52                	sd	s4,24(sp)
    800017bc:	e84e                	sd	s3,16(sp)
    800017be:	e44a                	sd	s2,8(sp)
    800017c0:	e006                	sd	ra,0(sp)
    800017c2:	00361293          	slli	t0,a2,0x3
    800017c6:	92aa                	add	t0,t0,a0
    800017c8:	0002b703          	ld	a4,0(t0)
    800017cc:	000683b3          	add	t2,a3,zero
    800017d0:	00068e33          	add	t3,a3,zero

00000000800017d4 <partition_for>:
    800017d4:	02ce5663          	bge	t3,a2,80001800 <partition_for_exit>
    800017d8:	003e1913          	slli	s2,t3,0x3
    800017dc:	992a                	add	s2,s2,a0
    800017de:	00093983          	ld	s3,0(s2)
    800017e2:	00e9dc63          	bge	s3,a4,800017fa <partition_skip>
    800017e6:	00339a13          	slli	s4,t2,0x3
    800017ea:	9a2a                	add	s4,s4,a0
    800017ec:	000a3a83          	ld	s5,0(s4)
    800017f0:	013a3023          	sd	s3,0(s4)
    800017f4:	01593023          	sd	s5,0(s2)
    800017f8:	0385                	addi	t2,t2,1

00000000800017fa <partition_skip>:
    800017fa:	0e05                	addi	t3,t3,1
    800017fc:	fc000ce3          	beqz	zero,800017d4 <partition_for>

0000000080001800 <partition_for_exit>:
    80001800:	00361b13          	slli	s6,a2,0x3
    80001804:	9b2a                	add	s6,s6,a0
    80001806:	000b3b83          	ld	s7,0(s6)
    8000180a:	00339a13          	slli	s4,t2,0x3
    8000180e:	9a2a                	add	s4,s4,a0
    80001810:	000a3e83          	ld	t4,0(s4)
    80001814:	017a3023          	sd	s7,0(s4)
    80001818:	01db3023          	sd	t4,0(s6)
    8000181c:	000385b3          	add	a1,t2,zero
    80001820:	7bc2                	ld	s7,48(sp)
    80001822:	7b22                	ld	s6,40(sp)
    80001824:	7a82                	ld	s5,32(sp)
    80001826:	6a62                	ld	s4,24(sp)
    80001828:	69c2                	ld	s3,16(sp)
    8000182a:	6922                	ld	s2,8(sp)
    8000182c:	6082                	ld	ra,0(sp)
    8000182e:	03810113          	addi	sp,sp,56
    80001832:	8082                	ret

0000000080001834 <print>:
    80001834:	fb810113          	addi	sp,sp,-72
    80001838:	e0de                	sd	s7,64(sp)
    8000183a:	fc5a                	sd	s6,56(sp)
    8000183c:	f856                	sd	s5,48(sp)
    8000183e:	f452                	sd	s4,40(sp)
    80001840:	f04e                	sd	s3,32(sp)
    80001842:	ec4a                	sd	s2,24(sp)
    80001844:	e826                	sd	s1,16(sp)
    80001846:	e422                	sd	s0,8(sp)
    80001848:	e006                	sd	ra,0(sp)
    8000184a:	00000417          	auipc	s0,0x0
    8000184e:	2fe40413          	addi	s0,s0,766 # 80001b48 <array>
    80001852:	00000497          	auipc	s1,0x0
    80001856:	3964b483          	ld	s1,918(s1) # 80001be8 <size>
    8000185a:	4901                	li	s2,0

000000008000185c <print_loop>:
    8000185c:	00391993          	slli	s3,s2,0x3
    80001860:	99a2                	add	s3,s3,s0
    80001862:	0009ba03          	ld	s4,0(s3)
    80001866:	49a9                	li	s3,10
    80001868:	033a4ab3          	div	s5,s4,s3
    8000186c:	033a6a33          	rem	s4,s4,s3
    80001870:	040a8e63          	beqz	s5,800018cc <less_than_10>
    80001874:	030a8a93          	addi	s5,s5,48
    80001878:	00000b97          	auipc	s7,0x0
    8000187c:	37cb8b93          	addi	s7,s7,892 # 80001bf4 <ascii_msg>
    80001880:	015ba023          	sw	s5,0(s7)
    80001884:	00000b97          	auipc	s7,0x0
    80001888:	374b8b93          	addi	s7,s7,884 # 80001bf8 <magic_mem>
    8000188c:	04000b13          	li	s6,64
    80001890:	016ba023          	sw	s6,0(s7)
    80001894:	4b05                	li	s6,1
    80001896:	016ba423          	sw	s6,8(s7)
    8000189a:	00000b17          	auipc	s6,0x0
    8000189e:	35ab0b13          	addi	s6,s6,858 # 80001bf4 <ascii_msg>
    800018a2:	016ba823          	sw	s6,16(s7)
    800018a6:	4b05                	li	s6,1
    800018a8:	016bac23          	sw	s6,24(s7)
    800018ac:	fffffb17          	auipc	s6,0xfffff
    800018b0:	754b0b13          	addi	s6,s6,1876 # 80001000 <tohost>
    800018b4:	017b2023          	sw	s7,0(s6)

00000000800018b8 <wait1>:
    800018b8:	fffffb17          	auipc	s6,0xfffff
    800018bc:	788b0b13          	addi	s6,s6,1928 # 80001040 <fromhost>
    800018c0:	000b3b83          	ld	s7,0(s6)
    800018c4:	fe0b8ae3          	beqz	s7,800018b8 <wait1>
    800018c8:	000b2023          	sw	zero,0(s6)

00000000800018cc <less_than_10>:
    800018cc:	030a0a13          	addi	s4,s4,48
    800018d0:	00000b97          	auipc	s7,0x0
    800018d4:	324b8b93          	addi	s7,s7,804 # 80001bf4 <ascii_msg>
    800018d8:	014ba023          	sw	s4,0(s7)
    800018dc:	00000b97          	auipc	s7,0x0
    800018e0:	31cb8b93          	addi	s7,s7,796 # 80001bf8 <magic_mem>
    800018e4:	04000b13          	li	s6,64
    800018e8:	016ba023          	sw	s6,0(s7)
    800018ec:	4b05                	li	s6,1
    800018ee:	016ba423          	sw	s6,8(s7)
    800018f2:	00000b17          	auipc	s6,0x0
    800018f6:	302b0b13          	addi	s6,s6,770 # 80001bf4 <ascii_msg>
    800018fa:	016ba823          	sw	s6,16(s7)
    800018fe:	4b05                	li	s6,1
    80001900:	016bac23          	sw	s6,24(s7)
    80001904:	fffffb17          	auipc	s6,0xfffff
    80001908:	6fcb0b13          	addi	s6,s6,1788 # 80001000 <tohost>
    8000190c:	017b2023          	sw	s7,0(s6)

0000000080001910 <wait2>:
    80001910:	fffffb17          	auipc	s6,0xfffff
    80001914:	730b0b13          	addi	s6,s6,1840 # 80001040 <fromhost>
    80001918:	000b3b83          	ld	s7,0(s6)
    8000191c:	fe0b8ae3          	beqz	s7,80001910 <wait2>
    80001920:	000b2023          	sw	zero,0(s6)
    80001924:	00000b97          	auipc	s7,0x0
    80001928:	2d4b8b93          	addi	s7,s7,724 # 80001bf8 <magic_mem>
    8000192c:	04000b13          	li	s6,64
    80001930:	016ba023          	sw	s6,0(s7)
    80001934:	4b05                	li	s6,1
    80001936:	016ba423          	sw	s6,8(s7)
    8000193a:	00000b17          	auipc	s6,0x0
    8000193e:	2b9b0b13          	addi	s6,s6,697 # 80001bf3 <newline_msg>
    80001942:	016ba823          	sw	s6,16(s7)
    80001946:	4b05                	li	s6,1
    80001948:	016bac23          	sw	s6,24(s7)
    8000194c:	fffffb17          	auipc	s6,0xfffff
    80001950:	6b4b0b13          	addi	s6,s6,1716 # 80001000 <tohost>
    80001954:	017b2023          	sw	s7,0(s6)

0000000080001958 <wait3>:
    80001958:	fffffb17          	auipc	s6,0xfffff
    8000195c:	6e8b0b13          	addi	s6,s6,1768 # 80001040 <fromhost>
    80001960:	000b3b83          	ld	s7,0(s6)
    80001964:	fe0b8ae3          	beqz	s7,80001958 <wait3>
    80001968:	000b2023          	sw	zero,0(s6)
    8000196c:	0905                	addi	s2,s2,1
    8000196e:	ee9917e3          	bne	s2,s1,8000185c <print_loop>
    80001972:	6082                	ld	ra,0(sp)
    80001974:	6422                	ld	s0,8(sp)
    80001976:	64c2                	ld	s1,16(sp)
    80001978:	6962                	ld	s2,24(sp)
    8000197a:	7982                	ld	s3,32(sp)
    8000197c:	7a22                	ld	s4,40(sp)
    8000197e:	7ac2                	ld	s5,48(sp)
    80001980:	7b62                	ld	s6,56(sp)
    80001982:	6b86                	ld	s7,64(sp)
    80001984:	04810113          	addi	sp,sp,72
    80001988:	8082                	ret

Disassembly of section .text.startup:

000000008000198a <.text.startup>:
    8000198a:	1141                	addi	sp,sp,-16
    8000198c:	00000517          	auipc	a0,0x0
    80001990:	19450513          	addi	a0,a0,404 # 80001b20 <wait3+0x1c8>
    80001994:	e406                	sd	ra,8(sp)
    80001996:	a91ff0ef          	jal	ra,80001426 <printstr>
    8000199a:	60a2                	ld	ra,8(sp)
    8000199c:	557d                	li	a0,-1
    8000199e:	0141                	addi	sp,sp,16
    800019a0:	8082                	ret
